; Function Attrs: mustprogress uwtable
define void @_ZN32pxrInternal_v0_24__pxrReserved__15SdfAbstractData17SetDictValueByKeyERKNS_7SdfPathERKNS_7TfTokenES6_RKNS_25SdfAbstractDataConstValueE(ptr noundef nonnull align 8 dereferenceable(24) %0, ptr noundef nonnull align 4 dereferenceable(8) %1, ptr noundef nonnull align 8 dereferenceable(8) %2, ptr noundef nonnull align 8 dereferenceable(8) %3, ptr noundef nonnull align 8 dereferenceable(24) %4) unnamed_addr #1 align 2 personality ptr @__gxx_personality_v0 {
  %6 = alloca %"class.pxrInternal_v0_24__pxrReserved__::VtValue", align 8
  %7 = getelementptr inbounds nuw i8, ptr %6, i64 8
  store ptr null, ptr %7, align 8
  %8 = load ptr, ptr %4, align 8
  %9 = load ptr, ptr %8, align 8
  %10 = invoke noundef zeroext i1 %9(ptr noundef nonnull align 8 dereferenceable(24) %4, ptr noundef nonnull %6)
          to label %11 unwind label %28

11:                                               ; preds = %5
  %12 = load ptr, ptr %0, align 8
  %13 = getelementptr inbounds i8, ptr %12, i64 208
  %14 = load ptr, ptr %13, align 8
  invoke void %14(ptr noundef nonnull align 8 dereferenceable(24) %0, ptr noundef nonnull align 4 dereferenceable(8) %1, ptr noundef nonnull align 8 dereferenceable(8) %2, ptr noundef nonnull align 8 dereferenceable(8) %3, ptr noundef nonnull align 8 dereferenceable(16) %6)
          to label %15 unwind label %28

15:                                               ; preds = %11
  %16 = load ptr, ptr %7, align 8
  %17 = ptrtoint ptr %16 to i64
  %.not.i.i = icmp eq ptr %16, null
  %18 = and i64 %17, 3
  %19 = icmp eq i64 %18, 3
  %or.cond.i.i = or i1 %.not.i.i, %19
  br i1 %or.cond.i.i, label %_ZN32pxrInternal_v0_24__pxrReserved__7VtValueD2Ev.exit, label %20

20:                                               ; preds = %15
  %21 = and i64 %17, -8
  %22 = inttoptr i64 %21 to ptr
  %23 = getelementptr inbounds nuw i8, ptr %22, i64 32
  %24 = load ptr, ptr %23, align 8
  invoke void %24(ptr noundef nonnull align 8 dereferenceable(8) %6)
          to label %_ZN32pxrInternal_v0_24__pxrReserved__7VtValueD2Ev.exit unwind label %25

25:                                               ; preds = %20
  %26 = landingpad { ptr, i32 }
          catch ptr null
  %27 = extractvalue { ptr, i32 } %26, 0
  call void @__clang_call_terminate(ptr %27) #21
  unreachable

_ZN32pxrInternal_v0_24__pxrReserved__7VtValueD2Ev.exit: ; preds = %15, %20
  ret void

28:                                               ; preds = %11, %5
  %29 = landingpad { ptr, i32 }
          cleanup
  call void @_ZN32pxrInternal_v0_24__pxrReserved__7VtValueD2Ev(ptr noundef nonnull align 8 dereferenceable(16) %6) #20
  resume { ptr, i32 } %29
}